target datalayout = "e-m:e-p270:32:32-p271:32:32-p272:64:64-i64:64-i128:128-f80:128-n8:16:32:64-S128"
target triple = "x86_64-pc-linux-gnu"

%struct.SwsInternal = type { %struct.SwsContext, ptr, ptr, ptr, ptr, i32, [2 x ptr], i32, i32, ptr, i32, i32, i32, i32, i32, i32, i32, i32, i32, i32, i32, i32, i32, i32, i32, i32, i32, i32, ptr, ptr, %struct.RangeList, [3 x ptr], [2 x [4 x i32]], [2 x [4 x ptr]], i32, double, i32, ptr, ptr, i32, [2 x i32], i32, ptr, ptr, [256 x i32], [256 x i32], [256 x float], i32, i32, ptr, i32, ptr, ptr, ptr, ptr, ptr, ptr, ptr, ptr, i32, i32, i32, i32, i32, i32, ptr, ptr, i32, i32, i32, ptr, [8 x i8], [1280 x i32], [1280 x ptr], [1280 x ptr], [1280 x ptr], [176 x i32], [4 x ptr], i32, i32, i32, [4 x i32], [4 x i32], i32, i32, i32, i32, i32, i32, i32, i32, i32, i32, i64, i64, i64, i64, i64, i64, i64, i64, i64, i64, i64, [1024 x i32], [1024 x i32], i32, i64, i64, i64, i64, i64, [1024 x i32], i64, i64, [8 x i16], [8 x i32], ptr, ptr, i32, ptr, ptr, ptr, ptr, [3 x [4 x i16]], [3 x [4 x i16]], ptr, ptr, ptr, ptr, ptr, ptr, ptr, ptr, ptr, ptr, ptr, ptr, ptr, ptr, ptr, ptr, ptr, ptr, ptr, ptr, i32, i32, i64, i64, i32, ptr, i32, ptr, i32, i32, i32, i32, i32, ptr }
%struct.SwsContext = type { ptr, ptr, i32, [2 x double], i32, i32, i32, i32, i32, i32, i32, i32, i32, i32, i32, i32, i32, i32, i32, i32, i32 }
%struct.RangeList = type { ptr, i32, i32 }
%struct.AVPixFmtDescriptor = type { ptr, i8, i8, i8, i64, [4 x %struct.AVComponentDescriptor], ptr }
%struct.AVComponentDescriptor = type { i32, i32, i32, i32, i32 }

@.str.1 = private unnamed_addr constant [30 x i8] c"Assertion %s failed at %s:%d\0A\00", align 1
@.str.4 = private unnamed_addr constant [5 x i8] c"desc\00", align 1
@.str.5 = private unnamed_addr constant [30 x i8] c"libswscale/swscale_internal.h\00", align 1

; Function Attrs: alwaysinline nounwind uwtable
define internal i32 @usePal(i32 noundef %0) #3 {
  %2 = alloca i32, align 4
  %3 = alloca i32, align 4
  store i32 %0, ptr %3, align 4, !tbaa !9
  %4 = load i32, ptr %3, align 4, !tbaa !9
  switch i32 %4, label %6 [
    i32 11, label %5
    i32 19, label %5
    i32 17, label %5
    i32 8, label %5
    i32 22, label %5
    i32 20, label %5
  ]

5:                                                ; preds = %1, %1, %1, %1, %1, %1
  store i32 1, ptr %2, align 4
  br label %7

6:                                                ; preds = %1
  store i32 0, ptr %2, align 4
  br label %7

7:                                                ; preds = %6, %5
  %8 = load i32, ptr %2, align 4
  ret i32 %8
}

; Function Attrs: alwaysinline nounwind uwtable
define internal i32 @isALPHA(i32 noundef %0) #3 {
  %2 = alloca i32, align 4
  %3 = alloca i32, align 4
  %4 = alloca ptr, align 8
  %5 = alloca i32, align 4
  store i32 %0, ptr %3, align 4, !tbaa !9
  call void @llvm.lifetime.start.p0(i64 8, ptr %4) #11
  %6 = load i32, ptr %3, align 4, !tbaa !9
  %7 = call ptr @av_pix_fmt_desc_get(i32 noundef %6)
  store ptr %7, ptr %4, align 8, !tbaa !48
  br label %8

8:                                                ; preds = %1
  %9 = load ptr, ptr %4, align 8, !tbaa !48
  %10 = icmp ne ptr %9, null
  br i1 %10, label %12, label %11

11:                                               ; preds = %8
  call void (ptr, i32, ptr, ...) @av_log(ptr noundef null, i32 noundef 0, ptr noundef @.str.1, ptr noundef @.str.4, ptr noundef @.str.5, i32 noundef 881)
  call void @abort() #12
  unreachable

12:                                               ; preds = %8
  br label %13

13:                                               ; preds = %12
  br label %14

14:                                               ; preds = %13
  %15 = load i32, ptr %3, align 4, !tbaa !9
  %16 = icmp eq i32 %15, 11
  br i1 %16, label %17, label %18

17:                                               ; preds = %14
  store i32 1, ptr %2, align 4
  store i32 1, ptr %5, align 4
  br label %24

18:                                               ; preds = %14
  %19 = load ptr, ptr %4, align 8, !tbaa !48
  %20 = getelementptr inbounds nuw %struct.AVPixFmtDescriptor, ptr %19, i32 0, i32 4
  %21 = load i64, ptr %20, align 8, !tbaa !50
  %22 = and i64 %21, 128
  %23 = trunc i64 %22 to i32
  store i32 %23, ptr %2, align 4
  store i32 1, ptr %5, align 4
  br label %24

24:                                               ; preds = %18, %17
  call void @llvm.lifetime.end.p0(i64 8, ptr %4) #11
  %25 = load i32, ptr %2, align 4
  ret i32 %25
}

; Function Attrs: nounwind uwtable
define internal i32 @palToGbrpWrapper(ptr noundef %0, ptr noundef %1, ptr noundef %2, i32 noundef %3, i32 noundef %4, ptr noundef %5, ptr noundef %6) #0 {
  %8 = alloca ptr, align 8
  %9 = alloca ptr, align 8
  %10 = alloca ptr, align 8
  %11 = alloca i32, align 4
  %12 = alloca i32, align 4
  %13 = alloca ptr, align 8
  %14 = alloca ptr, align 8
  %15 = alloca i32, align 4
  %16 = alloca i32, align 4
  %17 = alloca ptr, align 8
  %18 = alloca i32, align 4
  %19 = alloca ptr, align 8
  %20 = alloca [4 x ptr], align 16
  %21 = alloca i32, align 4
  %22 = alloca i32, align 4
  %23 = alloca i32, align 4
  %24 = alloca i32, align 4
  store ptr %0, ptr %8, align 8, !tbaa !13
  store ptr %1, ptr %9, align 8, !tbaa !52
  store ptr %2, ptr %10, align 8, !tbaa !54
  store i32 %3, ptr %11, align 4, !tbaa !9
  store i32 %4, ptr %12, align 4, !tbaa !9
  store ptr %5, ptr %13, align 8, !tbaa !52
  store ptr %6, ptr %14, align 8, !tbaa !54
  call void @llvm.lifetime.start.p0(i64 4, ptr %15) #11
  %25 = load ptr, ptr %8, align 8, !tbaa !13
  %26 = getelementptr inbounds nuw %struct.SwsInternal, ptr %25, i32 0, i32 0
  %27 = getelementptr inbounds nuw %struct.SwsContext, ptr %26, i32 0, i32 12
  %28 = load i32, ptr %27, align 8, !tbaa !15
  store i32 %28, ptr %15, align 4, !tbaa !9
  call void @llvm.lifetime.start.p0(i64 4, ptr %16) #11
  %29 = load ptr, ptr %8, align 8, !tbaa !13
  %30 = getelementptr inbounds nuw %struct.SwsInternal, ptr %29, i32 0, i32 0
  %31 = getelementptr inbounds nuw %struct.SwsContext, ptr %30, i32 0, i32 13
  %32 = load i32, ptr %31, align 4, !tbaa !33
  store i32 %32, ptr %16, align 4, !tbaa !9
  call void @llvm.lifetime.start.p0(i64 8, ptr %17) #11
  store ptr null, ptr %17, align 8, !tbaa !56
  call void @llvm.lifetime.start.p0(i64 4, ptr %18) #11
  %33 = load i32, ptr %16, align 4, !tbaa !9
  %34 = call i32 @isALPHA(i32 noundef %33)
  %35 = icmp ne i32 %34, 0
  %36 = select i1 %35, i32 4, i32 3
  store i32 %36, ptr %18, align 4, !tbaa !9
  call void @llvm.lifetime.start.p0(i64 8, ptr %19) #11
  %37 = load ptr, ptr %9, align 8, !tbaa !52
  %38 = getelementptr inbounds ptr, ptr %37, i64 0
  %39 = load ptr, ptr %38, align 8, !tbaa !4
  store ptr %39, ptr %19, align 8, !tbaa !4
  call void @llvm.lifetime.start.p0(i64 32, ptr %20) #11
  call void @llvm.memset.p0.i64(ptr align 16 %20, i8 0, i64 32, i1 false)
  call void @llvm.lifetime.start.p0(i64 4, ptr %21) #11
  store i32 0, ptr %21, align 4, !tbaa !9
  br label %40

40:                                               ; preds = %63, %7
  %41 = load i32, ptr %21, align 4, !tbaa !9
  %42 = load i32, ptr %18, align 4, !tbaa !9
  %43 = icmp slt i32 %41, %42
  br i1 %43, label %45, label %44

44:                                               ; preds = %40
  call void @llvm.lifetime.end.p0(i64 4, ptr %21) #11
  br label %66

45:                                               ; preds = %40
  %46 = load ptr, ptr %13, align 8, !tbaa !52
  %47 = load i32, ptr %21, align 4, !tbaa !9
  %48 = sext i32 %47 to i64
  %49 = getelementptr inbounds ptr, ptr %46, i64 %48
  %50 = load ptr, ptr %49, align 8, !tbaa !4
  %51 = load ptr, ptr %14, align 8, !tbaa !54
  %52 = load i32, ptr %21, align 4, !tbaa !9
  %53 = sext i32 %52 to i64
  %54 = getelementptr inbounds i32, ptr %51, i64 %53
  %55 = load i32, ptr %54, align 4, !tbaa !9
  %56 = load i32, ptr %11, align 4, !tbaa !9
  %57 = mul nsw i32 %55, %56
  %58 = sext i32 %57 to i64
  %59 = getelementptr inbounds i8, ptr %50, i64 %58
  %60 = load i32, ptr %21, align 4, !tbaa !9
  %61 = sext i32 %60 to i64
  %62 = getelementptr inbounds [4 x ptr], ptr %20, i64 0, i64 %61
  store ptr %59, ptr %62, align 8, !tbaa !4
  br label %63

63:                                               ; preds = %45
  %64 = load i32, ptr %21, align 4, !tbaa !9
  %65 = add nsw i32 %64, 1
  store i32 %65, ptr %21, align 4, !tbaa !9
  br label %40, !llvm.loop !88

66:                                               ; preds = %44
  %67 = load i32, ptr %15, align 4, !tbaa !9
  %68 = icmp eq i32 %67, 56
  br i1 %68, label %69, label %74

69:                                               ; preds = %66
  %70 = load i32, ptr %16, align 4, !tbaa !9
  switch i32 %70, label %73 [
    i32 71, label %71
    i32 111, label %72
  ]

71:                                               ; preds = %69
  store ptr @gray8aToPlanar8, ptr %17, align 8, !tbaa !56
  br label %73

72:                                               ; preds = %69
  store ptr @gray8aToPlanar8, ptr %17, align 8, !tbaa !56
  br label %73

73:                                               ; preds = %69, %72, %71
  br label %84

74:                                               ; preds = %66
  %75 = load i32, ptr %15, align 4, !tbaa !9
  %76 = call i32 @usePal(i32 noundef %75)
  %77 = icmp ne i32 %76, 0
  br i1 %77, label %78, label %83

78:                                               ; preds = %74
  %79 = load i32, ptr %16, align 4, !tbaa !9
  switch i32 %79, label %82 [
    i32 71, label %80
    i32 111, label %81
  ]

80:                                               ; preds = %78
  store ptr @pal8ToPlanar8, ptr %17, align 8, !tbaa !56
  br label %82

81:                                               ; preds = %78
  store ptr @pal8ToPlanar8, ptr %17, align 8, !tbaa !56
  br label %82

82:                                               ; preds = %78, %81, %80
  br label %83

83:                                               ; preds = %82, %74
  br label %84

84:                                               ; preds = %83, %73
  call void @llvm.lifetime.start.p0(i64 4, ptr %22) #11
  store i32 0, ptr %22, align 4, !tbaa !9
  br label %85

85:                                               ; preds = %135, %84
  %86 = load i32, ptr %22, align 4, !tbaa !9
  %87 = load i32, ptr %12, align 4, !tbaa !9
  %88 = icmp slt i32 %86, %87
  br i1 %88, label %90, label %89

89:                                               ; preds = %85
  store i32 7, ptr %23, align 4
  call void @llvm.lifetime.end.p0(i64 4, ptr %22) #11
  br label %138

90:                                               ; preds = %85
  %91 = load ptr, ptr %17, align 8, !tbaa !56
  %92 = load ptr, ptr %19, align 8, !tbaa !4
  %93 = getelementptr inbounds [4 x ptr], ptr %20, i64 0, i64 0
  %94 = load ptr, ptr %93, align 16, !tbaa !4
  %95 = getelementptr inbounds [4 x ptr], ptr %20, i64 0, i64 1
  %96 = load ptr, ptr %95, align 8, !tbaa !4
  %97 = getelementptr inbounds [4 x ptr], ptr %20, i64 0, i64 2
  %98 = load ptr, ptr %97, align 16, !tbaa !4
  %99 = getelementptr inbounds [4 x ptr], ptr %20, i64 0, i64 3
  %100 = load ptr, ptr %99, align 8, !tbaa !4
  %101 = load ptr, ptr %8, align 8, !tbaa !13
  %102 = getelementptr inbounds nuw %struct.SwsInternal, ptr %101, i32 0, i32 0
  %103 = getelementptr inbounds nuw %struct.SwsContext, ptr %102, i32 0, i32 8
  %104 = load i32, ptr %103, align 8, !tbaa !55
  %105 = load ptr, ptr %8, align 8, !tbaa !13
  %106 = getelementptr inbounds nuw %struct.SwsInternal, ptr %105, i32 0, i32 45
  %107 = getelementptr inbounds [256 x i32], ptr %106, i64 0, i64 0
  call void %91(ptr noundef %92, ptr noundef %94, ptr noundef %96, ptr noundef %98, ptr noundef %100, i32 noundef %104, ptr noundef %107)
  %108 = load ptr, ptr %10, align 8, !tbaa !54
  %109 = getelementptr inbounds i32, ptr %108, i64 0
  %110 = load i32, ptr %109, align 4, !tbaa !9
  %111 = load ptr, ptr %19, align 8, !tbaa !4
  %112 = sext i32 %110 to i64
  %113 = getelementptr inbounds i8, ptr %111, i64 %112
  store ptr %113, ptr %19, align 8, !tbaa !4
  call void @llvm.lifetime.start.p0(i64 4, ptr %24) #11
  store i32 0, ptr %24, align 4, !tbaa !9
  br label %114

114:                                              ; preds = %131, %90
  %115 = load i32, ptr %24, align 4, !tbaa !9
  %116 = load i32, ptr %18, align 4, !tbaa !9
  %117 = icmp slt i32 %115, %116
  br i1 %117, label %119, label %118

118:                                              ; preds = %114
  store i32 10, ptr %23, align 4
  call void @llvm.lifetime.end.p0(i64 4, ptr %24) #11
  br label %134

119:                                              ; preds = %114
  %120 = load ptr, ptr %14, align 8, !tbaa !54
  %121 = load i32, ptr %24, align 4, !tbaa !9
  %122 = sext i32 %121 to i64
  %123 = getelementptr inbounds i32, ptr %120, i64 %122
  %124 = load i32, ptr %123, align 4, !tbaa !9
  %125 = load i32, ptr %24, align 4, !tbaa !9
  %126 = sext i32 %125 to i64
  %127 = getelementptr inbounds [4 x ptr], ptr %20, i64 0, i64 %126
  %128 = load ptr, ptr %127, align 8, !tbaa !4
  %129 = sext i32 %124 to i64
  %130 = getelementptr inbounds i8, ptr %128, i64 %129
  store ptr %130, ptr %127, align 8, !tbaa !4
  br label %131

131:                                              ; preds = %119
  %132 = load i32, ptr %24, align 4, !tbaa !9
  %133 = add nsw i32 %132, 1
  store i32 %133, ptr %24, align 4, !tbaa !9
  br label %114, !llvm.loop !89

134:                                              ; preds = %118
  br label %135

135:                                              ; preds = %134
  %136 = load i32, ptr %22, align 4, !tbaa !9
  %137 = add nsw i32 %136, 1
  store i32 %137, ptr %22, align 4, !tbaa !9
  br label %85, !llvm.loop !90

138:                                              ; preds = %89
  %139 = load i32, ptr %12, align 4, !tbaa !9
  store i32 1, ptr %23, align 4
  call void @llvm.lifetime.end.p0(i64 32, ptr %20) #11
  call void @llvm.lifetime.end.p0(i64 8, ptr %19) #11
  call void @llvm.lifetime.end.p0(i64 4, ptr %18) #11
  call void @llvm.lifetime.end.p0(i64 8, ptr %17) #11
  call void @llvm.lifetime.end.p0(i64 4, ptr %16) #11
  call void @llvm.lifetime.end.p0(i64 4, ptr %15) #11
  ret i32 %139
}