; Function Attrs: nounwind uwtable
define internal noundef i32 @palToGbrpWrapper(ptr noundef %0, ptr noundef readonly captures(none) %1, ptr noundef readonly captures(none) %2, i32 noundef %3, i32 noundef returned %4, ptr noundef readonly captures(none) %5, ptr noundef readonly captures(none) %6) #3 {
  %8 = alloca [4 x ptr], align 16
  %9 = getelementptr inbounds nuw i8, ptr %0, i64 72
  %10 = load i32, ptr %9, align 8, !tbaa !6
  %11 = getelementptr inbounds nuw i8, ptr %0, i64 76
  %12 = load i32, ptr %11, align 4, !tbaa !29
  %13 = tail call ptr @av_pix_fmt_desc_get(i32 noundef %12) #13
  %.not.i = icmp eq ptr %13, null
  br i1 %.not.i, label %14, label %15

14:                                               ; preds = %7
  tail call void (ptr, i32, ptr, ...) @av_log(ptr noundef null, i32 noundef 0, ptr noundef nonnull @.str.1, ptr noundef nonnull @.str.4, ptr noundef nonnull @.str.5, i32 noundef 881) #13
  tail call void @abort() #14
  unreachable

15:                                               ; preds = %7
  %16 = icmp eq i32 %12, 11
  br i1 %16, label %isALPHA.exit.thread, label %isALPHA.exit

isALPHA.exit:                                     ; preds = %15
  %17 = getelementptr inbounds nuw i8, ptr %13, i64 16
  %18 = load i64, ptr %17, align 8, !tbaa !33
  %.fr49 = freeze i64 %18
  %19 = and i64 %.fr49, 128
  %.not = icmp eq i64 %19, 0
  %20 = select i1 %.not, i64 3, i64 4
  br label %isALPHA.exit.thread

isALPHA.exit.thread:                              ; preds = %isALPHA.exit, %15
  %wide.trip.count = phi i64 [ 4, %15 ], [ %20, %isALPHA.exit ]
  %21 = load ptr, ptr %1, align 8, !tbaa !49
  call void @llvm.lifetime.start.p0(i64 32, ptr nonnull %8) #13
  call void @llvm.memset.p0.i64(ptr noundef nonnull align 16 dereferenceable(32) %8, i8 0, i64 32, i1 false)
  br label %23

22:                                               ; preds = %23
  switch i32 %10, label %usePal.exit.thread [
    i32 56, label %32
    i32 11, label %usePal.exit
    i32 19, label %usePal.exit
    i32 17, label %usePal.exit
    i32 8, label %usePal.exit
    i32 22, label %usePal.exit
    i32 20, label %usePal.exit
  ]

23:                                               ; preds = %isALPHA.exit.thread, %23
  %indvars.iv = phi i64 [ 0, %isALPHA.exit.thread ], [ %indvars.iv.next, %23 ]
  %24 = getelementptr inbounds nuw ptr, ptr %5, i64 %indvars.iv
  %25 = load ptr, ptr %24, align 8, !tbaa !49
  %26 = getelementptr inbounds nuw i32, ptr %6, i64 %indvars.iv
  %27 = load i32, ptr %26, align 4, !tbaa !48
  %28 = mul nsw i32 %27, %3
  %29 = sext i32 %28 to i64
  %30 = getelementptr inbounds i8, ptr %25, i64 %29
  %31 = getelementptr inbounds nuw [4 x ptr], ptr %8, i64 0, i64 %indvars.iv
  store ptr %30, ptr %31, align 8, !tbaa !49
  %indvars.iv.next = add nuw nsw i64 %indvars.iv, 1
  %exitcond.not = icmp eq i64 %indvars.iv.next, %wide.trip.count
  br i1 %exitcond.not, label %22, label %23, !llvm.loop !91

32:                                               ; preds = %22
  %switch.selectcmp.case1 = icmp eq i32 %12, 71
  %switch.selectcmp.case2 = icmp eq i32 %12, 111
  %switch.selectcmp = or i1 %switch.selectcmp.case1, %switch.selectcmp.case2
  %33 = select i1 %switch.selectcmp, ptr @gray8aToPlanar8, ptr null
  br label %usePal.exit.thread

usePal.exit:                                      ; preds = %22, %22, %22, %22, %22, %22
  %switch.selectcmp.case140 = icmp eq i32 %12, 71
  %switch.selectcmp.case241 = icmp eq i32 %12, 111
  %switch.selectcmp42 = or i1 %switch.selectcmp.case140, %switch.selectcmp.case241
  %34 = select i1 %switch.selectcmp42, ptr @pal8ToPlanar8, ptr null
  br label %usePal.exit.thread

usePal.exit.thread:                               ; preds = %22, %usePal.exit, %32
  %.035 = phi ptr [ %33, %32 ], [ %34, %usePal.exit ], [ null, %22 ]
  %35 = icmp sgt i32 %4, 0
  br i1 %35, label %.lr.ph, label %._crit_edge

.lr.ph:                                           ; preds = %usePal.exit.thread
  %36 = getelementptr inbounds nuw i8, ptr %8, i64 8
  %37 = getelementptr inbounds nuw i8, ptr %8, i64 16
  %38 = getelementptr inbounds nuw i8, ptr %8, i64 24
  %39 = getelementptr inbounds nuw i8, ptr %0, i64 56
  %40 = getelementptr inbounds nuw i8, ptr %0, i64 1504
  br label %41

._crit_edge:                                      ; preds = %48, %usePal.exit.thread
  call void @llvm.lifetime.end.p0(i64 32, ptr nonnull %8) #13
  ret i32 %4

41:                                               ; preds = %.lr.ph, %48
  %.03253 = phi i32 [ 0, %.lr.ph ], [ %51, %48 ]
  %.03452 = phi ptr [ %21, %.lr.ph ], [ %50, %48 ]
  %42 = load ptr, ptr %8, align 16, !tbaa !49
  %43 = load ptr, ptr %36, align 8, !tbaa !49
  %44 = load ptr, ptr %37, align 16, !tbaa !49
  %45 = load ptr, ptr %38, align 8, !tbaa !49
  %46 = load i32, ptr %39, align 8, !tbaa !50
  tail call void %.035(ptr noundef %.03452, ptr noundef %42, ptr noundef %43, ptr noundef %44, ptr noundef %45, i32 noundef %46, ptr noundef nonnull %40) #13, !callees !92
  %47 = load i32, ptr %2, align 4, !tbaa !48
  br label %52

48:                                               ; preds = %52
  %49 = sext i32 %47 to i64
  %50 = getelementptr inbounds i8, ptr %.03452, i64 %49
  %51 = add nuw nsw i32 %.03253, 1
  %exitcond60.not = icmp eq i32 %51, %4
  br i1 %exitcond60.not, label %._crit_edge, label %41, !llvm.loop !93

52:                                               ; preds = %41, %52
  %indvars.iv55 = phi i64 [ 0, %41 ], [ %indvars.iv.next56, %52 ]
  %53 = getelementptr inbounds nuw i32, ptr %6, i64 %indvars.iv55
  %54 = load i32, ptr %53, align 4, !tbaa !48
  %55 = getelementptr inbounds nuw [4 x ptr], ptr %8, i64 0, i64 %indvars.iv55
  %56 = load ptr, ptr %55, align 8, !tbaa !49
  %57 = sext i32 %54 to i64
  %58 = getelementptr inbounds i8, ptr %56, i64 %57
  store ptr %58, ptr %55, align 8, !tbaa !49
  %indvars.iv.next56 = add nuw nsw i64 %indvars.iv55, 1
  %exitcond59.not = icmp eq i64 %indvars.iv.next56, %wide.trip.count
  br i1 %exitcond59.not, label %48, label %52, !llvm.loop !94
}